Certificate:
    Data:
        Version: 3 (0x2)
        Serial Number: 30 (0x1e)
        Signature Algorithm: sha256WithRSAEncryption
        Issuer: C=US, ST=CA, L=SanFrancisco, O=Fort-Funston, CN=Fort-Funston CA/emailAddress=me@myhost.mydomain
        Validity
            Not Before: Dec  4 14:14:40 2019 GMT
            Not After : Dec  1 14:14:40 2029 GMT
        Subject: C=US, ST=CA, L=SanFrancisco, O=Fort-Funston, OU=t.serhiichuk, CN=t.serhiichuk/name=t.serhiichuk/emailAddress=mail@host.domain
        Subject Public Key Info:
            Public Key Algorithm: rsaEncryption
                RSA Public-Key: (2048 bit)
                Modulus:
                    00:b8:cf:61:6f:c3:f4:ee:dc:6d:48:25:08:fe:13:
                    1b:22:3e:70:fe:d6:62:e4:b9:e7:a0:2a:67:8e:3d:
                    45:a5:8c:29:5d:92:4f:fc:f7:3e:23:85:73:a3:b8:
                    3c:5e:5c:2e:7a:3f:36:94:cd:3b:34:3e:b6:68:ef:
                    04:40:36:47:4f:bd:ca:e5:60:d3:f1:e8:52:c5:4f:
                    d6:38:14:e4:84:69:88:ea:31:fb:23:5e:84:fa:ba:
                    91:d6:03:5f:18:11:55:d1:f7:ed:f5:e6:f2:ea:40:
                    dc:fc:17:db:39:ee:9c:aa:b0:40:64:43:78:38:ad:
                    ba:d5:7c:61:f8:ca:ee:0f:ae:92:48:da:00:03:ef:
                    ae:a7:8f:99:2c:d7:9d:26:2d:26:86:bb:b9:88:79:
                    ee:8c:9b:09:20:48:4c:20:f0:01:b1:91:a5:bb:93:
                    4e:ea:c9:7e:ba:1b:43:69:6c:58:eb:aa:42:fc:4d:
                    ec:23:56:fd:b3:91:0f:60:d4:48:96:ef:96:30:61:
                    e4:00:bb:c4:3b:3e:36:08:70:39:c6:ac:ab:f0:d4:
                    bc:2d:37:13:62:f4:77:8e:e4:b6:0b:03:18:8d:57:
                    a3:51:40:c2:42:50:3c:af:a2:cb:18:49:79:07:bf:
                    5b:05:49:ff:bf:51:c0:c2:36:f0:3c:32:5e:f2:10:
                    f1:73
                Exponent: 65537 (0x10001)
        X509v3 extensions:
            X509v3 Basic Constraints: 
                CA:FALSE
            Netscape Comment: 
                Easy-RSA Generated Certificate
            X509v3 Subject Key Identifier: 
                6D:CD:97:72:01:28:55:F2:4D:D2:A9:B0:B5:73:25:09:87:05:0C:85
            X509v3 Authority Key Identifier: 
                keyid:83:D0:0E:BE:18:57:58:7F:D3:11:CB:99:B9:9C:52:46:4D:DB:B2:36
                DirName:/C=US/ST=CA/L=SanFrancisco/O=Fort-Funston/CN=Fort-Funston CA/emailAddress=me@myhost.mydomain
                serial:F0:67:7F:5D:5A:42:34:B1

            X509v3 Extended Key Usage: 
                TLS Web Client Authentication
            X509v3 Key Usage: 
                Digital Signature
    Signature Algorithm: sha256WithRSAEncryption
         e7:1f:f6:37:56:6f:48:b9:93:6b:e3:2f:3a:5c:53:97:a5:2f:
         e2:9a:ad:30:25:e4:b4:47:f8:88:09:7f:08:63:34:9e:a5:0b:
         a3:e5:01:8a:cc:88:d1:d5:39:34:9a:c6:00:e6:77:c9:92:c1:
         8a:8e:25:ee:58:64:bc:6f:5c:ab:67:6c:35:dd:1b:3f:74:7d:
         b6:14:80:0c:f4:17:41:ce:f1:08:89:1f:4c:52:48:b7:42:f1:
         bd:92:d6:b2:36:3a:b1:c9:51:ee:8b:ea:b0:a5:87:df:6a:32:
         f0:12:dc:c2:20:f3:54:7c:4a:50:b5:3e:2b:d5:e2:e4:65:17:
         b8:9d
-----BEGIN CERTIFICATE-----
MIIEbTCCA9agAwIBAgIBHjANBgkqhkiG9w0BAQsFADCBhTELMAkGA1UEBhMCVVMx
CzAJBgNVBAgTAkNBMRUwEwYDVQQHEwxTYW5GcmFuY2lzY28xFTATBgNVBAoTDEZv
cnQtRnVuc3RvbjEYMBYGA1UEAxMPRm9ydC1GdW5zdG9uIENBMSEwHwYJKoZIhvcN
AQkBFhJtZUBteWhvc3QubXlkb21haW4wHhcNMTkxMjA0MTQxNDQwWhcNMjkxMjAx
MTQxNDQwWjCBrjELMAkGA1UEBhMCVVMxCzAJBgNVBAgTAkNBMRUwEwYDVQQHEwxT
YW5GcmFuY2lzY28xFTATBgNVBAoTDEZvcnQtRnVuc3RvbjEVMBMGA1UECxMMdC5z
ZXJoaWljaHVrMRUwEwYDVQQDEwx0LnNlcmhpaWNodWsxFTATBgNVBCkTDHQuc2Vy
aGlpY2h1azEfMB0GCSqGSIb3DQEJARYQbWFpbEBob3N0LmRvbWFpbjCCASIwDQYJ
KoZIhvcNAQEBBQADggEPADCCAQoCggEBALjPYW/D9O7cbUglCP4TGyI+cP7WYuS5
56AqZ449RaWMKV2ST/z3PiOFc6O4PF5cLno/NpTNOzQ+tmjvBEA2R0+9yuVg0/Ho
UsVP1jgU5IRpiOox+yNehPq6kdYDXxgRVdH37fXm8upA3PwX2znunKqwQGRDeDit
utV8YfjK7g+ukkjaAAPvrqePmSzXnSYtJoa7uYh57oybCSBITCDwAbGRpbuTTurJ
frobQ2lsWOuqQvxN7CNW/bORD2DUSJbvljBh5AC7xDs+NghwOcasq/DUvC03E2L0
d47ktgsDGI1Xo1FAwkJQPK+iyxhJeQe/WwVJ/79RwMI28DwyXvIQ8XMCAwEAAaOC
ATwwggE4MAkGA1UdEwQCMAAwLQYJYIZIAYb4QgENBCAWHkVhc3ktUlNBIEdlbmVy
YXRlZCBDZXJ0aWZpY2F0ZTAdBgNVHQ4EFgQUbc2XcgEoVfJN0qmwtXMlCYcFDIUw
gboGA1UdIwSBsjCBr4AUg9AOvhhXWH/TEcuZuZxSRk3bsjahgYukgYgwgYUxCzAJ
BgNVBAYTAlVTMQswCQYDVQQIEwJDQTEVMBMGA1UEBxMMU2FuRnJhbmNpc2NvMRUw
EwYDVQQKEwxGb3J0LUZ1bnN0b24xGDAWBgNVBAMTD0ZvcnQtRnVuc3RvbiBDQTEh
MB8GCSqGSIb3DQEJARYSbWVAbXlob3N0Lm15ZG9tYWluggkA8Gd/XVpCNLEwEwYD
VR0lBAwwCgYIKwYBBQUHAwIwCwYDVR0PBAQDAgeAMA0GCSqGSIb3DQEBCwUAA4GB
AOcf9jdWb0i5k2vjLzpcU5elL+KarTAl5LRH+IgJfwhjNJ6lC6PlAYrMiNHVOTSa
xgDmd8mSwYqOJe5YZLxvXKtnbDXdGz90fbYUgAz0F0HO8QiJH0xSSLdC8b2S1rI2
OrHJUe6L6rClh99qMvAS3MIg81R8SlC1PivV4uRlF7id
-----END CERTIFICATE-----
